target datalayout = "e-m:e-p270:32:32-p271:32:32-p272:64:64-i64:64-i128:128-f80:128-n8:16:32:64-S128"
target triple = "x86_64-pc-linux-gnu"

%struct.od_entry = type { i16, i16, [64 x i8], ptr, i64 }
%struct.subobject = type { %struct.range_admin_tag, %struct.od_entry }
%struct.range_admin_tag = type { i32, i32 }

; Function Attrs: inlinehint null_pointer_is_valid sspstrong uwtable
define internal i32 @subobject_equal(ptr noundef %0, ptr noundef %1) #7 {
  %3 = alloca ptr, align 8
  %4 = alloca ptr, align 8
  %5 = alloca ptr, align 8
  %6 = alloca ptr, align 8
  store ptr %0, ptr %3, align 8
  store ptr %1, ptr %4, align 8
  call void @llvm.lifetime.start.p0(i64 8, ptr %5) #13
  %7 = load ptr, ptr %3, align 8
  %8 = getelementptr inbounds nuw %struct.subobject, ptr %7, i32 0, i32 1
  store ptr %8, ptr %5, align 8
  call void @llvm.lifetime.start.p0(i64 8, ptr %6) #13
  %9 = load ptr, ptr %4, align 8
  %10 = getelementptr inbounds nuw %struct.subobject, ptr %9, i32 0, i32 1
  store ptr %10, ptr %6, align 8
  %11 = load ptr, ptr %5, align 8
  %12 = getelementptr inbounds nuw %struct.od_entry, ptr %11, i32 0, i32 1
  %13 = load i16, ptr %12, align 2
  %14 = zext i16 %13 to i32
  %15 = load ptr, ptr %6, align 8
  %16 = getelementptr inbounds nuw %struct.od_entry, ptr %15, i32 0, i32 1
  %17 = load i16, ptr %16, align 2
  %18 = zext i16 %17 to i32
  %19 = icmp eq i32 %14, %18
  br i1 %19, label %20, label %37

20:                                               ; preds = %2
  %21 = load ptr, ptr %5, align 8
  %22 = getelementptr inbounds nuw %struct.od_entry, ptr %21, i32 0, i32 3
  %23 = load ptr, ptr %22, align 8
  %24 = load ptr, ptr %6, align 8
  %25 = getelementptr inbounds nuw %struct.od_entry, ptr %24, i32 0, i32 3
  %26 = load ptr, ptr %25, align 8
  %27 = icmp eq ptr %23, %26
  br i1 %27, label %28, label %37

28:                                               ; preds = %20
  %29 = load ptr, ptr %5, align 8
  %30 = getelementptr inbounds nuw %struct.od_entry, ptr %29, i32 0, i32 2
  %31 = getelementptr inbounds [64 x i8], ptr %30, i64 0, i64 0
  %32 = load ptr, ptr %6, align 8
  %33 = getelementptr inbounds nuw %struct.od_entry, ptr %32, i32 0, i32 2
  %34 = getelementptr inbounds [64 x i8], ptr %33, i64 0, i64 0
  %35 = call i32 @g_str_equal(ptr noundef %31, ptr noundef %34)
  %36 = icmp ne i32 %35, 0
  br label %37

37:                                               ; preds = %28, %20, %2
  %38 = phi i1 [ false, %20 ], [ false, %2 ], [ %36, %28 ]
  %39 = zext i1 %38 to i32
  call void @llvm.lifetime.end.p0(i64 8, ptr %6) #13
  call void @llvm.lifetime.end.p0(i64 8, ptr %5) #13
  ret i32 %39
}