; Function Attrs: inlinehint null_pointer_is_valid sspstrong uwtable
define internal range(i32 0, 2) i32 @subobject_equal(ptr noundef %0, ptr noundef %1) #7 {
  %3 = getelementptr inbounds nuw i8, ptr %0, i64 10
  %4 = load i16, ptr %3, align 2
  %5 = getelementptr inbounds nuw i8, ptr %1, i64 10
  %6 = load i16, ptr %5, align 2
  %7 = icmp eq i16 %4, %6
  br i1 %7, label %8, label %20

8:                                                ; preds = %2
  %9 = getelementptr inbounds nuw i8, ptr %0, i64 80
  %10 = load ptr, ptr %9, align 8
  %11 = getelementptr inbounds nuw i8, ptr %1, i64 80
  %12 = load ptr, ptr %11, align 8
  %13 = icmp eq ptr %10, %12
  br i1 %13, label %14, label %20

14:                                               ; preds = %8
  %15 = getelementptr inbounds nuw i8, ptr %0, i64 12
  %16 = getelementptr inbounds nuw i8, ptr %1, i64 12
  %17 = tail call i32 @g_str_equal(ptr noundef nonnull %15, ptr noundef nonnull %16)
  %18 = icmp ne i32 %17, 0
  %19 = zext i1 %18 to i32
  br label %20

20:                                               ; preds = %14, %8, %2
  %21 = phi i32 [ 0, %8 ], [ 0, %2 ], [ %19, %14 ]
  ret i32 %21
}